target datalayout = "e-m:e-p270:32:32-p271:32:32-p272:64:64-i64:64-i128:128-f80:128-n8:16:32:64-S128"
target triple = "x86_64-pc-linux-gnu"

@ett_rpc_array = internal global i32 0, align 4
@hf_rpc_no_values = internal global i32 0, align 4
@hf_rpc_array_len = internal global i32 0, align 4

; Function Attrs: null_pointer_is_valid sspstrong uwtable
define i32 @dissect_rpc_uint32(ptr noundef %0, ptr noundef %1, i32 noundef %2, i32 noundef %3) #0 {
  %5 = alloca ptr, align 8
  %6 = alloca ptr, align 8
  %7 = alloca i32, align 4
  %8 = alloca i32, align 4
  store ptr %0, ptr %5, align 8
  store ptr %1, ptr %6, align 8
  store i32 %2, ptr %7, align 4
  store i32 %3, ptr %8, align 4
  %9 = load ptr, ptr %6, align 8
  %10 = load i32, ptr %7, align 4
  %11 = load ptr, ptr %5, align 8
  %12 = load i32, ptr %8, align 4
  %13 = call ptr @proto_tree_add_item(ptr noundef %9, i32 noundef %10, ptr noundef %11, i32 noundef %12, i32 noundef 4, i32 noundef 0)
  %14 = load i32, ptr %8, align 4
  %15 = add i32 %14, 4
  ret i32 %15
}

; Function Attrs: null_pointer_is_valid sspstrong uwtable
define i32 @dissect_rpc_array(ptr noundef %0, ptr noundef %1, ptr noundef %2, i32 noundef %3, ptr noundef %4, i32 noundef %5) #0 {
  %7 = alloca i32, align 4
  %8 = alloca ptr, align 8
  %9 = alloca ptr, align 8
  %10 = alloca ptr, align 8
  %11 = alloca i32, align 4
  %12 = alloca ptr, align 8
  %13 = alloca i32, align 4
  %14 = alloca ptr, align 8
  %15 = alloca ptr, align 8
  %16 = alloca i32, align 4
  %17 = alloca i32, align 4
  store ptr %0, ptr %8, align 8
  store ptr %1, ptr %9, align 8
  store ptr %2, ptr %10, align 8
  store i32 %3, ptr %11, align 4
  store ptr %4, ptr %12, align 8
  store i32 %5, ptr %13, align 4
  call void @llvm.lifetime.start.p0(i64 8, ptr %14) #18
  call void @llvm.lifetime.start.p0(i64 8, ptr %15) #18
  call void @llvm.lifetime.start.p0(i64 4, ptr %16) #18
  %18 = load ptr, ptr %8, align 8
  %19 = load i32, ptr %11, align 4
  %20 = call i32 @tvb_get_ntohl(ptr noundef %18, i32 noundef %19)
  store i32 %20, ptr %16, align 4
  %21 = load ptr, ptr %10, align 8
  %22 = load i32, ptr %13, align 4
  %23 = load ptr, ptr %8, align 8
  %24 = load i32, ptr %11, align 4
  %25 = call ptr @proto_tree_add_item(ptr noundef %21, i32 noundef %22, ptr noundef %23, i32 noundef %24, i32 noundef -1, i32 noundef 0)
  store ptr %25, ptr %14, align 8
  %26 = load ptr, ptr %14, align 8
  %27 = load i32, ptr @ett_rpc_array, align 4
  %28 = call ptr @proto_item_add_subtree(ptr noundef %26, i32 noundef %27)
  store ptr %28, ptr %15, align 8
  %29 = load i32, ptr %16, align 4
  %30 = icmp eq i32 %29, 0
  br i1 %30, label %31, label %43

31:                                               ; preds = %6
  %32 = load ptr, ptr %15, align 8
  %33 = load i32, ptr @hf_rpc_no_values, align 4
  %34 = load ptr, ptr %8, align 8
  %35 = load i32, ptr %11, align 4
  %36 = call ptr @proto_tree_add_item(ptr noundef %32, i32 noundef %33, ptr noundef %34, i32 noundef %35, i32 noundef 4, i32 noundef 0)
  %37 = load i32, ptr %11, align 4
  %38 = add i32 %37, 4
  store i32 %38, ptr %11, align 4
  %39 = load ptr, ptr %14, align 8
  %40 = load ptr, ptr %8, align 8
  %41 = load i32, ptr %11, align 4
  call void @proto_item_set_end(ptr noundef %39, ptr noundef %40, i32 noundef %41)
  %42 = load i32, ptr %11, align 4
  store i32 %42, ptr %7, align 4
  store i32 1, ptr %17, align 4
  br label %65

43:                                               ; preds = %6
  %44 = load ptr, ptr %8, align 8
  %45 = load ptr, ptr %15, align 8
  %46 = load i32, ptr @hf_rpc_array_len, align 4
  %47 = load i32, ptr %11, align 4
  %48 = call i32 @dissect_rpc_uint32(ptr noundef %44, ptr noundef %45, i32 noundef %46, i32 noundef %47)
  store i32 %48, ptr %11, align 4
  br label %49

49:                                               ; preds = %53, %43
  %50 = load i32, ptr %16, align 4
  %51 = add i32 %50, -1
  store i32 %51, ptr %16, align 4
  %52 = icmp ne i32 %50, 0
  br i1 %52, label %53, label %60

53:                                               ; preds = %49
  %54 = load ptr, ptr %12, align 8
  %55 = load ptr, ptr %8, align 8
  %56 = load i32, ptr %11, align 4
  %57 = load ptr, ptr %9, align 8
  %58 = load ptr, ptr %15, align 8
  %59 = call i32 %54(ptr noundef %55, i32 noundef %56, ptr noundef %57, ptr noundef %58, ptr noundef null)
  store i32 %59, ptr %11, align 4
  br label %49, !llvm.loop !11

60:                                               ; preds = %49
  %61 = load ptr, ptr %14, align 8
  %62 = load ptr, ptr %8, align 8
  %63 = load i32, ptr %11, align 4
  call void @proto_item_set_end(ptr noundef %61, ptr noundef %62, i32 noundef %63)
  %64 = load i32, ptr %11, align 4
  store i32 %64, ptr %7, align 4
  store i32 1, ptr %17, align 4
  br label %65

65:                                               ; preds = %60, %31
  call void @llvm.lifetime.end.p0(i64 4, ptr %16) #18
  call void @llvm.lifetime.end.p0(i64 8, ptr %15) #18
  call void @llvm.lifetime.end.p0(i64 8, ptr %14) #18
  %66 = load i32, ptr %7, align 4
  ret i32 %66
}