; Function Attrs: null_pointer_is_valid sspstrong uwtable
define noundef i32 @dissect_rpc_array(ptr noundef %0, ptr noundef %1, ptr noundef %2, i32 noundef %3, ptr noundef readonly captures(none) %4, i32 noundef %5) local_unnamed_addr #0 {
  %7 = tail call i32 @tvb_get_ntohl(ptr noundef %0, i32 noundef %3)
  %8 = tail call ptr @proto_tree_add_item(ptr noundef %2, i32 noundef %5, ptr noundef %0, i32 noundef %3, i32 noundef -1, i32 noundef 0)
  %9 = load i32, ptr @ett_rpc_array, align 4
  %10 = tail call ptr @proto_item_add_subtree(ptr noundef %8, i32 noundef %9)
  %11 = icmp eq i32 %7, 0
  %12 = add i32 %3, 4
  br i1 %11, label %13, label %16

13:                                               ; preds = %6
  %14 = load i32, ptr @hf_rpc_no_values, align 4
  %15 = tail call ptr @proto_tree_add_item(ptr noundef %10, i32 noundef %14, ptr noundef %0, i32 noundef %3, i32 noundef 4, i32 noundef 0)
  br label %.loopexit

16:                                               ; preds = %6
  %17 = load i32, ptr @hf_rpc_array_len, align 4
  %18 = tail call ptr @proto_tree_add_item(ptr noundef %10, i32 noundef %17, ptr noundef %0, i32 noundef %3, i32 noundef 4, i32 noundef 0)
  br label %19

19:                                               ; preds = %16, %19
  %.033 = phi i32 [ %7, %16 ], [ %20, %19 ]
  %.03032 = phi i32 [ %12, %16 ], [ %21, %19 ]
  %20 = add i32 %.033, -1
  %21 = tail call i32 %4(ptr noundef %0, i32 noundef %.03032, ptr noundef %1, ptr noundef %10, ptr noundef null)
  %.not = icmp eq i32 %20, 0
  br i1 %.not, label %.loopexit, label %19, !llvm.loop !11

.loopexit:                                        ; preds = %19, %13
  %.lcssa.sink = phi i32 [ %12, %13 ], [ %21, %19 ]
  tail call void @proto_item_set_end(ptr noundef %8, ptr noundef %0, i32 noundef %.lcssa.sink)
  ret i32 %.lcssa.sink
}